; Function Attrs: nounwind uwtable
define internal ptr @line_macro(ptr nocapture noundef readonly %tmpl) #0 {
entry:
  br label %while.cond

while.cond:                                       ; preds = %while.cond, %entry
  %tmpl.addr.0 = phi ptr [ %tmpl, %entry ], [ %0, %while.cond ]
  %origin = getelementptr inbounds %struct.Token, ptr %tmpl.addr.0, i64 0, i32 15
  %0 = load ptr, ptr %origin, align 8
  %tobool.not = icmp eq ptr %0, null
  br i1 %tobool.not, label %while.end, label %while.cond, !llvm.loop !12

while.end:                                        ; preds = %while.cond
  %line_no = getelementptr inbounds %struct.Token, ptr %tmpl.addr.0, i64 0, i32 10
  %1 = load i32, ptr %line_no, align 16
  %file = getelementptr inbounds %struct.Token, ptr %tmpl.addr.0, i64 0, i32 8
  %2 = load ptr, ptr %file, align 16
  %line_delta = getelementptr inbounds %struct.File, ptr %2, i64 0, i32 4
  %3 = load i32, ptr %line_delta, align 8
  %add = add nsw i32 %3, %1
  %call.i = tail call ptr (ptr, ...) @format(ptr noundef nonnull @.str.63, i32 noundef %add) #14
  %4 = load ptr, ptr %file, align 16
  %5 = load ptr, ptr %4, align 8
  %file_no.i = getelementptr inbounds %struct.File, ptr %4, i64 0, i32 1
  %6 = load i32, ptr %file_no.i, align 8
  %call2.i = tail call ptr @new_file(ptr noundef %5, i32 noundef %6, ptr noundef %call.i) #14
  %call3.i = tail call ptr @tokenize(ptr noundef %call2.i) #14
  ret ptr %call3.i
}